{
   <insert_a_suppression_name_here>
   Memcheck:Leak
   match-leak-kinds: reachable
   fun:malloc
   fun:__XALT_hostensure_buffer_stack
   fun:__XALT_host_switch_to_buffer
   fun:__XALT_host_scan_buffer
   fun:__XALT_hostname_parser_xalt_1_5
   fun:__XALT_myinit_LD_PRELOAD_xalt_1_5
   fun:_dl_init
   obj:/usr/lib64/ld-2.17.so
}
{
   <insert_a_suppression_name_here>
   Memcheck:Leak
   match-leak-kinds: reachable
   fun:_Znwm
   fun:_ZN5boost3log11v2_mt_posix7sources3aux18get_severity_levelEv
   fun:_ZN5boost3log11v2_mt_posix7sources3aux14severity_levelINS1_7trivial14severity_levelEE9set_valueES6_
   fun:_ZN5boost3log11v2_mt_posix7sources21basic_severity_loggerINS2_12basic_loggerIcNS2_18severity_logger_mtINS1_7trivial14severity_levelEEENS2_18multi_thread_modelINS1_3aux14light_rw_mutexEEEEES7_E20open_record_unlockedINS_9parameter3aux15tagged_argumentINS1_8keywords3tag8severityEKS7_EEEENS1_6recordERKT_
   fun:_ZN5boost3log11v2_mt_posix7sources22basic_composite_loggerIcNS2_18severity_logger_mtINS1_7trivial14severity_levelEEENS2_18multi_thread_modelINS1_3aux14light_rw_mutexEEENS2_8featuresIJNS2_8severityIS6_EEEEEE11open_recordINS_9parameter3aux15tagged_argumentINS1_8keywords3tag8severityEKS6_EEEENS1_6recordERKT_
   fun:main
}
{
   <insert_a_suppression_name_here>
   Memcheck:Leak
   match-leak-kinds: reachable
   fun:_Znwm
   fun:_ZN5boost3log11v2_mt_posix3aux11this_thread6get_idEv
   fun:_ZN5boost3log11v2_mt_posix4core14implementation16init_thread_dataEv
   fun:_ZN5boost3log11v2_mt_posix4core11open_recordERKNS1_13attribute_setE
   fun:_ZN5boost3log11v2_mt_posix7sources12basic_loggerIcNS2_18severity_logger_mtINS1_7trivial14severity_levelEEENS2_18multi_thread_modelINS1_3aux14light_rw_mutexEEEE20open_record_unlockedINS_9parameter3aux15tagged_argumentINS1_8keywords3tag8severityEKS6_EEEENS1_6recordERKT_
   fun:_ZN5boost3log11v2_mt_posix7sources21basic_severity_loggerINS2_12basic_loggerIcNS2_18severity_logger_mtINS1_7trivial14severity_levelEEENS2_18multi_thread_modelINS1_3aux14light_rw_mutexEEEEES7_E20open_record_unlockedINS_9parameter3aux15tagged_argumentINS1_8keywords3tag8severityEKS7_EEEENS1_6recordERKT_
   fun:_ZN5boost3log11v2_mt_posix7sources22basic_composite_loggerIcNS2_18severity_logger_mtINS1_7trivial14severity_levelEEENS2_18multi_thread_modelINS1_3aux14light_rw_mutexEEENS2_8featuresIJNS2_8severityIS6_EEEEEE11open_recordINS_9parameter3aux15tagged_argumentINS1_8keywords3tag8severityEKS6_EEEENS1_6recordERKT_
   fun:main
}
{
   <insert_a_suppression_name_here>
   Memcheck:Leak
   match-leak-kinds: reachable
   fun:_Znwm
   fun:_ZN5boost6detail24add_thread_exit_functionEPNS0_25thread_exit_function_baseE
   fun:_ZN5boost3log11v2_mt_posix7sources3aux18get_severity_levelEv
   fun:_ZN5boost3log11v2_mt_posix7sources3aux14severity_levelINS1_7trivial14severity_levelEE9set_valueES6_
   fun:_ZN5boost3log11v2_mt_posix7sources21basic_severity_loggerINS2_12basic_loggerIcNS2_18severity_logger_mtINS1_7trivial14severity_levelEEENS2_18multi_thread_modelINS1_3aux14light_rw_mutexEEEEES7_E20open_record_unlockedINS_9parameter3aux15tagged_argumentINS1_8keywords3tag8severityEKS7_EEEENS1_6recordERKT_
   fun:_ZN5boost3log11v2_mt_posix7sources22basic_composite_loggerIcNS2_18severity_logger_mtINS1_7trivial14severity_levelEEENS2_18multi_thread_modelINS1_3aux14light_rw_mutexEEENS2_8featuresIJNS2_8severityIS6_EEEEEE11open_recordINS_9parameter3aux15tagged_argumentINS1_8keywords3tag8severityEKS6_EEEENS1_6recordERKT_
   fun:main
}
{
   <insert_a_suppression_name_here>
   Memcheck:Leak
   match-leak-kinds: reachable
   fun:_Znwm
   fun:_ZN5boost6detail25make_external_thread_dataEv
   fun:_ZN5boost6detail24add_thread_exit_functionEPNS0_25thread_exit_function_baseE
   fun:_ZN5boost3log11v2_mt_posix7sources3aux18get_severity_levelEv
   fun:_ZN5boost3log11v2_mt_posix7sources3aux14severity_levelINS1_7trivial14severity_levelEE9set_valueES6_
   fun:_ZN5boost3log11v2_mt_posix7sources21basic_severity_loggerINS2_12basic_loggerIcNS2_18severity_logger_mtINS1_7trivial14severity_levelEEENS2_18multi_thread_modelINS1_3aux14light_rw_mutexEEEEES7_E20open_record_unlockedINS_9parameter3aux15tagged_argumentINS1_8keywords3tag8severityEKS7_EEEENS1_6recordERKT_
   fun:_ZN5boost3log11v2_mt_posix7sources22basic_composite_loggerIcNS2_18severity_logger_mtINS1_7trivial14severity_levelEEENS2_18multi_thread_modelINS1_3aux14light_rw_mutexEEENS2_8featuresIJNS2_8severityIS6_EEEEEE11open_recordINS_9parameter3aux15tagged_argumentINS1_8keywords3tag8severityEKS6_EEEENS1_6recordERKT_
   fun:main
}
